target datalayout = "e-m:e-p270:32:32-p271:32:32-p272:64:64-i64:64-i128:128-f80:128-n8:16:32:64-S128"
target triple = "x86_64-pc-linux-gnu"

%struct.UBiDi = type { ptr, ptr, i32, i32, i32, i32, i32, i32, i32, i32, i32, ptr, ptr, ptr, ptr, ptr, ptr, i8, i8, ptr, ptr, i8, i32, i32, i8, i8, i8, ptr, i32, ptr, i32, ptr, i32, i32, i32, i32, i32, ptr, [10 x %struct.Para], i32, ptr, [1 x %struct.Run], i32, ptr, [5 x %struct.Isolate], %struct.InsertPoints, i32, ptr, ptr }
%struct.Para = type { i32, i32 }
%struct.Run = type { i32, i32, i32 }
%struct.Isolate = type { i32, i32, i32, i16 }
%struct.InsertPoints = type { i32, i32, i32, i32, ptr }

; Function Attrs: mustprogress nounwind uwtable
define zeroext i8 @ubidi_getParaLevelAtIndex_77(ptr noundef %0, i32 noundef %1) #7 {
  %3 = alloca ptr, align 8
  %4 = alloca i32, align 4
  %5 = alloca i32, align 4
  store ptr %0, ptr %3, align 8, !tbaa !11
  store i32 %1, ptr %4, align 4, !tbaa !7
  call void @llvm.lifetime.start.p0(i64 4, ptr %5) #10
  store i32 0, ptr %5, align 4, !tbaa !7
  br label %6

6:                                                ; preds = %25, %2
  %7 = load i32, ptr %5, align 4, !tbaa !7
  %8 = load ptr, ptr %3, align 8, !tbaa !11
  %9 = getelementptr inbounds nuw %struct.UBiDi, ptr %8, i32 0, i32 36
  %10 = load i32, ptr %9, align 8, !tbaa !54
  %11 = icmp slt i32 %7, %10
  br i1 %11, label %12, label %28

12:                                               ; preds = %6
  %13 = load i32, ptr %4, align 4, !tbaa !7
  %14 = load ptr, ptr %3, align 8, !tbaa !11
  %15 = getelementptr inbounds nuw %struct.UBiDi, ptr %14, i32 0, i32 37
  %16 = load ptr, ptr %15, align 8, !tbaa !55
  %17 = load i32, ptr %5, align 4, !tbaa !7
  %18 = sext i32 %17 to i64
  %19 = getelementptr inbounds %struct.Para, ptr %16, i64 %18
  %20 = getelementptr inbounds nuw %struct.Para, ptr %19, i32 0, i32 0
  %21 = load i32, ptr %20, align 4, !tbaa !56
  %22 = icmp slt i32 %13, %21
  br i1 %22, label %23, label %24

23:                                               ; preds = %12
  br label %28

24:                                               ; preds = %12
  br label %25

25:                                               ; preds = %24
  %26 = load i32, ptr %5, align 4, !tbaa !7
  %27 = add nsw i32 %26, 1
  store i32 %27, ptr %5, align 4, !tbaa !7
  br label %6, !llvm.loop !58

28:                                               ; preds = %23, %6
  %29 = load i32, ptr %5, align 4, !tbaa !7
  %30 = load ptr, ptr %3, align 8, !tbaa !11
  %31 = getelementptr inbounds nuw %struct.UBiDi, ptr %30, i32 0, i32 36
  %32 = load i32, ptr %31, align 8, !tbaa !54
  %33 = icmp sge i32 %29, %32
  br i1 %33, label %34, label %39

34:                                               ; preds = %28
  %35 = load ptr, ptr %3, align 8, !tbaa !11
  %36 = getelementptr inbounds nuw %struct.UBiDi, ptr %35, i32 0, i32 36
  %37 = load i32, ptr %36, align 8, !tbaa !54
  %38 = sub nsw i32 %37, 1
  store i32 %38, ptr %5, align 4, !tbaa !7
  br label %39

39:                                               ; preds = %34, %28
  %40 = load ptr, ptr %3, align 8, !tbaa !11
  %41 = getelementptr inbounds nuw %struct.UBiDi, ptr %40, i32 0, i32 37
  %42 = load ptr, ptr %41, align 8, !tbaa !55
  %43 = load i32, ptr %5, align 4, !tbaa !7
  %44 = sext i32 %43 to i64
  %45 = getelementptr inbounds %struct.Para, ptr %42, i64 %44
  %46 = getelementptr inbounds nuw %struct.Para, ptr %45, i32 0, i32 1
  %47 = load i32, ptr %46, align 4, !tbaa !59
  %48 = trunc i32 %47 to i8
  call void @llvm.lifetime.end.p0(i64 4, ptr %5) #10
  ret i8 %48
}