; Function Attrs: mustprogress nofree norecurse nosync nounwind willreturn memory(read, inaccessiblemem: none) uwtable
define zeroext i8 @ubidi_getParaLevelAtIndex_77(ptr noundef readonly captures(none) %0, i32 noundef %1) local_unnamed_addr #8 {
  %3 = getelementptr inbounds nuw i8, ptr %0, i64 200
  %4 = load i32, ptr %3, align 8, !tbaa !40
  %5 = icmp sgt i32 %4, 0
  %6 = getelementptr inbounds nuw i8, ptr %0, i64 208
  %7 = load ptr, ptr %6, align 8, !tbaa !41
  br i1 %5, label %.lr.ph, label %._crit_edge.thread

.lr.ph:                                           ; preds = %2
  %wide.trip.count = zext nneg i32 %4 to i64
  br label %8

8:                                                ; preds = %.lr.ph, %12
  %indvars.iv = phi i64 [ 0, %.lr.ph ], [ %indvars.iv.next, %12 ]
  %9 = getelementptr inbounds nuw %struct.Para, ptr %7, i64 %indvars.iv
  %10 = load i32, ptr %9, align 4, !tbaa !42
  %11 = icmp slt i32 %1, %10
  br i1 %11, label %14, label %12

12:                                               ; preds = %8
  %indvars.iv.next = add nuw nsw i64 %indvars.iv, 1
  %exitcond.not = icmp eq i64 %indvars.iv.next, %wide.trip.count
  br i1 %exitcond.not, label %._crit_edge.thread, label %8, !llvm.loop !44

._crit_edge.thread:                               ; preds = %12, %2
  %13 = add nsw i32 %4, -1
  br label %16

14:                                               ; preds = %8
  %15 = trunc nuw nsw i64 %indvars.iv to i32
  br label %16

16:                                               ; preds = %._crit_edge.thread, %14
  %17 = phi i32 [ %15, %14 ], [ %13, %._crit_edge.thread ]
  %18 = sext i32 %17 to i64
  %19 = getelementptr inbounds %struct.Para, ptr %7, i64 %18, i32 1
  %20 = load i32, ptr %19, align 4, !tbaa !46
  %21 = trunc i32 %20 to i8
  ret i8 %21
}